; Function Attrs: mustprogress nofree norecurse nosync nounwind willreturn memory(argmem: readwrite) uwtable
define void @_ZN4LIEF2PE17DynamicRelocationC2EOS1_(ptr noundef nonnull writeonly align 8 captures(none) dereferenceable(32) initializes((0, 32)) %0, ptr noundef nonnull align 8 captures(none) dereferenceable(32) %1) unnamed_addr #3 align 2 {
  store ptr getelementptr inbounds nuw inrange(-16, 32) (i8, ptr @_ZTVN4LIEF2PE17DynamicRelocationE, i64 16), ptr %0, align 8, !tbaa !3
  %3 = getelementptr inbounds nuw i8, ptr %0, i64 8
  %4 = getelementptr inbounds nuw i8, ptr %1, i64 8
  tail call void @llvm.memcpy.p0.p0.i64(ptr noundef nonnull align 8 dereferenceable(16) %3, ptr noundef nonnull align 8 dereferenceable(16) %4, i64 16, i1 false)
  %5 = getelementptr inbounds nuw i8, ptr %0, i64 24
  %6 = getelementptr inbounds nuw i8, ptr %1, i64 24
  %7 = load i64, ptr %6, align 8, !tbaa !21
  store i64 %7, ptr %5, align 8, !tbaa !21
  store ptr null, ptr %6, align 8, !tbaa !21
  ret void
}